; Function Attrs: mustprogress uwtable
define noundef zeroext i1 @_ZNK6casadi6MatrixINS_6SXElemEE5is_opEx(ptr noundef nonnull align 8 dereferenceable(40) %0, i64 noundef %1) local_unnamed_addr #3 align 2 personality ptr @__gxx_personality_v0 {
  %3 = alloca %"class.casadi::SXElem", align 8
  call void @_ZNK6casadi6MatrixINS_6SXElemEE6scalarEv(ptr dead_on_unwind nonnull writable sret(%"class.casadi::SXElem") align 8 %3, ptr noundef nonnull align 8 dereferenceable(40) %0)
  %4 = invoke noundef zeroext i1 @_ZNK6casadi6SXElem5is_opEx(ptr noundef nonnull align 8 dereferenceable(8) %3, i64 noundef %1)
          to label %5 unwind label %6

5:                                                ; preds = %2
  call void @_ZN6casadi6SXElemD1Ev(ptr noundef nonnull align 8 dereferenceable(8) %3) #26
  ret i1 %4

6:                                                ; preds = %2
  %7 = landingpad { ptr, i32 }
          cleanup
  call void @_ZN6casadi6SXElemD1Ev(ptr noundef nonnull align 8 dereferenceable(8) %3) #26
  resume { ptr, i32 } %7
}